EXPORTS
    CheckParams @1
    ClearList @2
    Connect @3
    CopyLayer @4
    CreateChannel @5
    Disconnect @6
    GetChannelFlags @7
    GetChannelStatus @8
    GetFloat @9
    GetInt @10
    GetLayerTime @11
    GetLayerTimeMS @12
    GetOutsideID @13
    GetParamName @14
    GetQueueDepth @15
    GetQueueFree @16
    GetQueueLength @17
    GetStatus @18
    HostsLst @19 DATA
    InitModLib @20
    Insert @21
    Koi2WinArray @22 DATA
    NullTime @23 DATA
    PutFloat @24
    PutInt @25
    PutLayerTime @26
    PutLayerTimeMS @27
    PutStatus @28
    SetCopyLayerTimeOut @29
    SetQueueDepth @30
    SetRxTimeOut @31
    ShutdownModLib @32
    Subscribe @33
    SuperMutexLst @34 DATA
    SuperPidLst @35 DATA
    TimeMutex @36 DATA
    Unsubscribe @37
    Win2KoiArray @38 DATA
    _Z10CopyRowExtlP8LONG_LSTlS0_ @39
    _Z10FlgGetFlagli @40
    _Z10FlgSetFlaglic @41
    _Z10FloatToIntfi @42
    _Z10GetCharCntPcc @43
    _Z10I18n_Startv @44
    _Z10IntToFloatj @45
    _Z10IsLoadTaskiPcS_S_ @46
    _Z10MemFindIntPvil @47
    _Z10SplitMasksPcR8CHAR_LSTS_ @48
    _Z10StrCaseCmpPKcS0_ @49
    _Z10ThreadExitPv @50
    _Z10ThreadKillmi @51
    _Z10ULongToStrm @52
    _Z11CheckLocalev @53
    _Z11CmpKeyValuelP8LONG_LSTlS0_ @54
    _Z11FloatToLongf @55
    _Z11LongToFloatl @56
    _Z11LongToPCharl @57
    _Z11MemFindCharPvcl @58
    _Z11MemFindLongPvll @59
    _Z11MutexCreatev @60
    _Z11MutexIsLockl @61
    _Z11MutexIsLockli @62
    _Z11MutexUnlockl @63
    _Z11MutexUnlockli @64
    _Z11NetReadDataiPvldP4CStrb @65
    _Z11ReplaceCharPccc @66
    _Z11StrNCaseCmpPKcS0_l @67
    _Z11StrToDoublePc @68
    _Z11ThreadYieldv @69
    _Z11TimeToPCharP5CTimelb @70
    _Z12AnalogToChardiib @71
    _Z12FindLastWordPc @72
    _Z12GlobalChangePvll @73
    _Z12GlobalDeletePv @74
    _Z12IsNumericStrPc @75
    _Z12LLongToPCharx @76
    _Z12MakeEmptyTblPcS_ @77
    _Z12MemFindShortPvsl @78
    _Z12MutexDestroyl @79
    _Z12NetWriteDataiPvldP4CStr @80
    _Z12ThreadCreatePcPFPvS0_ES0_P4CStr @81
    _Z12ULongToPCharm @82
    _Z13CrSleepSelecti @83
    _Z13DelStaticBuffi @84
    _Z13DoubleToPChardl @85
    _Z13FindFirstWordPc @86
    _Z13GetStaticBuffi @87
    _Z14CompareStringAPcS_bcc @88
    _Z14FindLastKeyPosllP8LONG_LSTlS0_ @89
    _Z14FindRightCommaPcS_S_S_sb @90
    _Z14FlgCreateArrayi @91
    _Z14GetCurrentTimev @92
    _Z14GetFilterValuePcS_S_ @93
    _Z14LockSuperMutexv @94
    _Z14NetCloseSocketiP4CStr @95
    _Z14NetMakeHostLstv @96
    _Z14SetFilterValueR4CStrPcS1_S1_ @97
    _Z15FindFirstKeyPosllP8LONG_LSTlS0_ @98
    _Z15FindFirstSymbolPcb @99
    _Z15FlgDestroyArrayl @100
    _Z15IsEqualKeyValuelP8LONG_LSTlS0_ @101
    _Z15SelectFirstWordPc @102
    _Z16FindRightBracketPcS_S_b @103
    _Z16MakeCrToolsErrorPcS_ @104
    _Z16MutexCreateArrayi @105
    _Z16UnlockSuperMutexv @106
    _Z17MutexDestroyArrayl @107
    _Z17NetFillAddrStructPciP11sockaddr_inP4CStr @108
    _Z18AddInSuperMutexLstl @109
    _Z18GUCopyOutsideValuecPhS_b @110
    _Z19ClientRequestThreadPv @111
    _Z19FreeInSuperMutexLstv @112
    _Z19LockInSuperMutexLstl @113
    _Z20DelFromSuperMutexLstl @114
    _Z20GUGetOutsideByteSizelb @115
    _Z20ThreadSetConcurrencyi @116
    _Z21GetPosInSuperMutexLstl @117
    _Z21UnlockInSuperMutexLstl @118
    _Z22NetOpenTCPClientSocketPcldP4CStr @119
    _Z4CRC8PKc @120
    _Z5LTrimPc @121
    _Z5RTrimPc @122
    _Z6CrTimev @123
    _Z6IsTrimc @124
    _Z6IsWordPc @125
    _Z6MemCmpPvS_l @126
    _Z6MemCpyPvPKvl @127
    _Z6MemSetPvcl @128
    _Z6MinPtrPvS_ @129
    _Z6NewObjl @130
    _Z6RecodeiPc @131
    _Z6StrCmpPKcS0_ @132
    _Z6StrCpyPcPKc @133
    _Z6StrLenPKc @134
    _Z6StrStrPcS_ @135
    _Z6StrTokPcS_PS_ @136
    _Z6SubStrPcS_b @137
    _Z7AllTrimPc @138
    _Z7ConvInti @139
    _Z7CrSleepi @140
    _Z7DelCharPcc @141
    _Z7IsDelimPc @142
    _Z7StrNCpyPcPKcl @143
    _Z7StrPBrkPcS_ @144
    _Z8AbortAppPc @145
    _Z8ConvLongl @146
    _Z8FindWordPcS_bbPs @147
    _Z8KillTaskPcS_S_ @148
    _Z9ConvShorts @149
    _Z9GlobalNewm @150
    _Z9LongToStrl @151
    _Z9MakeTblAsP4CTblS0_b @152
    _Z9MutexLockl @153
    _Z9MutexLockli @154
    _Z9NetAcceptidP4CStr @155
    _Z9StrToLongPc @156
    _Z9StrToTimePclbs @157
    _Z9ThreadPIDb @158
    _ZN10DOUBLE_LST3CmpEll @159
    _ZN10DOUBLE_LST4FindElll @160
    _ZN10DOUBLE_LST6IsNullEl @161
    _ZN10DOUBLE_LST7SetNullEl @162
    _ZN10DOUBLE_LSTC1EllPc @163
    _ZN10DOUBLE_LSTC1Ev @164
    _ZN10DOUBLE_LSTC2EllPc @165
    _ZN10DOUBLE_LSTC2Ev @166
    _ZN10DOUBLE_LSTD0Ev @167
    _ZN10DOUBLE_LSTD1Ev @168
    _ZN10DOUBLE_LSTD2Ev @169
    _ZN11CCalcClientC1EPc @170
    _ZN11CCalcClientC2EPc @171
    _ZN11CCalcClientD0Ev @172
    _ZN11CCalcClientD1Ev @173
    _ZN11CCalcClientD2Ev @174
    _ZN11VARCHAR_LST11GetBuffSizeEv @175
    _ZN11VARCHAR_LST3CmpEll @176
    _ZN11VARCHAR_LST3GetEl @177
    _ZN11VARCHAR_LST3InsEll @178
    _ZN11VARCHAR_LST3SetEll @179
    _ZN11VARCHAR_LST4CopyEll @180
    _ZN11VARCHAR_LST4FindElll @181
    _ZN11VARCHAR_LST6GetPtrEl @182
    _ZN11VARCHAR_LST6IsNullEl @183
    _ZN11VARCHAR_LST7SetNullEl @184
    _ZN11VARCHAR_LST9FreeItemsEll @185
    _ZN11VARCHAR_LSTC1ElllPc @186
    _ZN11VARCHAR_LSTC1Ev @187
    _ZN11VARCHAR_LSTC2ElllPc @188
    _ZN11VARCHAR_LSTC2Ev @189
    _ZN11VARCHAR_LSTD0Ev @190
    _ZN11VARCHAR_LSTD1Ev @191
    _ZN11VARCHAR_LSTD2Ev @192
    _ZN12CCalcRequest10CheckTableEv @193
    _ZN12CCalcRequest10MakeHeaderEP17CCalcHeaderPacketlll @194
    _ZN12CCalcRequest10PrintErrorEPcS0_ @195
    _ZN12CCalcRequest11GetChanFlagEl @196
    _ZN12CCalcRequest11GetSignalIDEi @197
    _ZN12CCalcRequest11IsCLTimeoutEv @198
    _ZN12CCalcRequest11IsOurPacketEP17CCalcHeaderPacket @199
    _ZN12CCalcRequest11OpenChannelEv @200
    _ZN12CCalcRequest11SetChanFlagEl @201
    _ZN12CCalcRequest12CloseChannelEb @202
    _ZN12CCalcRequest12GetLayerTimeEi @203
    _ZN12CCalcRequest12GetQueueFreeEv @204
    _ZN12CCalcRequest12PutLayerTimeEii @205
    _ZN12CCalcRequest12SetCLTimeoutEl @206
    _ZN12CCalcRequest12SetRxTimeoutEl @207
    _ZN12CCalcRequest13GetChanStatusEl @208
    _ZN12CCalcRequest13GetQueueDepthEv @209
    _ZN12CCalcRequest13GetSignalNameEi @210
    _ZN12CCalcRequest13SetChanStatusEl @211
    _ZN12CCalcRequest13SetQueueDepthEi @212
    _ZN12CCalcRequest13UnsetChanFlagEl @213
    _ZN12CCalcRequest14CalcPacketSizeEv @214
    _ZN12CCalcRequest14GetOutsideTypeEi @215
    _ZN12CCalcRequest14GetQueueLengthEv @216
    _ZN12CCalcRequest14ProcessRequestEv @217
    _ZN12CCalcRequest15MakeInputBufferEv @218
    _ZN12CCalcRequest15MakePacketQueueEi @219
    _ZN12CCalcRequest15SubscribeClientEv @220
    _ZN12CCalcRequest15UnsetChanStatusEl @221
    _ZN12CCalcRequest16ChannelOperationEv @222
    _ZN12CCalcRequest16InvalidateStatusEv @223
    _ZN12CCalcRequest16UpdateSignalsTblEv @224
    _ZN12CCalcRequest17MakeGetDataPacketEv @225
    _ZN12CCalcRequest17MakePutDataPacketEv @226
    _ZN12CCalcRequest20ProcessGetDataPacketEPc @227
    _ZN12CCalcRequest20ProcessPutDataPacketEv @228
    _ZN12CCalcRequest29MakeSubscriptionRequestPacketEv @229
    _ZN12CCalcRequest30MakeSubscriptionResponsePacketEv @230
    _ZN12CCalcRequest32ProcessSubscriptionRequestPacketEv @231
    _ZN12CCalcRequest33ProcessSubscriptionResponsePacketEv @232
    _ZN12CCalcRequest4LockEv @233
    _ZN12CCalcRequest6UnlockEv @234
    _ZN12CCalcRequest8GetValueEiPh @235
    _ZN12CCalcRequest8PutValueEiPhi @236
    _ZN12CCalcRequest9CopyLayerEv @237
    _ZN12CCalcRequest9GetStatusEi @238
    _ZN12CCalcRequest9MakeErrorEPcS0_ @239
    _ZN12CCalcRequest9PutStatusEic @240
    _ZN12CCalcRequestC1EPvPcl @241
    _ZN12CCalcRequestC2EPvPcl @242
    _ZN12CCalcRequestD0Ev @243
    _ZN12CCalcRequestD1Ev @244
    _ZN12CCalcRequestD2Ev @245
    _ZN12CPacketQueue10GetFreePtrEv @246
    _ZN12CPacketQueue12GetFreeQueueEv @247
    _ZN12CPacketQueue12GetPacketCntEv @248
    _ZN12CPacketQueue13AddNextPacketEPv @249
    _ZN12CPacketQueue13GetNextPacketEv @250
    _ZN12CPacketQueue4CropEP8LONG_LST @251
    _ZN12CPacketQueue4InitEv @252
    _ZN12CPacketQueue4LockEv @253
    _ZN12CPacketQueue5FlushEv @254
    _ZN12CPacketQueue6UnlockEv @255
    _ZN12CPacketQueue7FreePtrEPv @256
    _ZN12CPacketQueueC1Elll @257
    _ZN12CPacketQueueC2Elll @258
    _ZN12CPacketQueueD1Ev @259
    _ZN12CPacketQueueD2Ev @260
    _ZN24CGetClientSubscribedData12CloseChannelEb @261
    _ZN24CGetClientSubscribedData13GetQueueDepthEv @262
    _ZN24CGetClientSubscribedData13SetQueueDepthEi @263
    _ZN24CGetClientSubscribedData20ProcessGetDataPacketEPc @264
    _ZN24CGetClientSubscribedData9CopyLayerEv @265
    _ZN24CGetClientSubscribedDataC1EP11CCalcClientPc @266
    _ZN24CGetClientSubscribedDataC2EP11CCalcClientPc @267
    _ZN24CGetClientSubscribedDataD0Ev @268
    _ZN24CGetClientSubscribedDataD1Ev @269
    _ZN24CGetClientSubscribedDataD2Ev @270
    _ZN24CPutClientSubscribedData13GetQueueDepthEv @271
    _ZN24CPutClientSubscribedData13SetQueueDepthEi @272
    _ZN24CPutClientSubscribedData16ClearChangeFlagsEv @273
    _ZN24CPutClientSubscribedData17MakePutDataPacketEv @274
    _ZN24CPutClientSubscribedData9CopyLayerEv @275
    _ZN24CPutClientSubscribedDataC1EP11CCalcClientPc @276
    _ZN24CPutClientSubscribedDataC2EP11CCalcClientPc @277
    _ZN24CPutClientSubscribedDataD0Ev @278
    _ZN24CPutClientSubscribedDataD1Ev @279
    _ZN24CPutClientSubscribedDataD2Ev @280
    _ZN3LST10AppendSizeEl @281
    _ZN3LST10BadPosExitEPcl @282
    _ZN3LST10GetBuffPtrEv @283
    _ZN3LST10GetDataPtrEv @284
    _ZN3LST11FindSortPosElbl @285
    _ZN3LST11GetBuffSizeEv @286
    _ZN3LST11GetValueCntElll @287
    _ZN3LST11TruncateDimEv @288
    _ZN3LST13SetAppendSizeEl @289
    _ZN3LST14SetLockOptionsElib @290
    _ZN3LST3AddEl @291
    _ZN3LST3CmpEll @292
    _ZN3LST3DelEl @293
    _ZN3LST3GetEl @294
    _ZN3LST3InsEll @295
    _ZN3LST3SetEll @296
    _ZN3LST4CopyEll @297
    _ZN3LST4FillElll @298
    _ZN3LST4FindElll @299
    _ZN3LST4LockEv @300
    _ZN3LST4MoveEll @301
    _ZN3LST6AddPtrEPv @302
    _ZN3LST6GetCntEv @303
    _ZN3LST6GetPtrEl @304
    _ZN3LST6IsLockEv @305
    _ZN3LST6IsNullEl @306
    _ZN3LST6SetCntEl @307
    _ZN3LST6SetPtrElPv @308
    _ZN3LST6UnlockEv @309
    _ZN3LST7GetSizeEv @310
    _ZN3LST7SetNameEPc @311
    _ZN3LST7SetNullEl @312
    _ZN3LST7SetSizeEll @313
    _ZN3LST9FreeItemsEll @314
    _ZN3LST9MoveItemsElll @315
    _ZN3LSTC1ElPc @316
    _ZN3LSTC1ElllPc @317
    _ZN3LSTC1Ev @318
    _ZN3LSTC2ElPc @319
    _ZN3LSTC2ElllPc @320
    _ZN3LSTC2Ev @321
    _ZN3LSTD0Ev @322
    _ZN3LSTD1Ev @323
    _ZN3LSTD2Ev @324
    _ZN4CCol11GetFullNameEv @325
    _ZN4CCol11GetItemSizeEv @326
    _ZN4CCol11GetOutCTypeEv @327
    _ZN4CCol11GetTypeNameEv @328
    _ZN4CCol12CmpShowValueElPc @329
    _ZN4CCol12GetShowValueEl @330
    _ZN4CCol12GetTextColorEv @331
    _ZN4CCol12TestColStyleEl @332
    _ZN4CCol13GetOutSQLTypeEv @333
    _ZN4CCol14ChangeColStyleElb @334
    _ZN4CCol16CmpExternalValueElPS_l @335
    _ZN4CCol17CopyExternalValueElPS_l @336
    _ZN4CCol3CmpEP4CObj @337
    _ZN4CCol3CmpEll @338
    _ZN4CCol3GetEl @339
    _ZN4CCol3SetEll @340
    _ZN4CCol4CopyEP4CObj @341
    _ZN4CCol4FillEPcS0_lssms @342
    _ZN4CCol4FindElll @343
    _ZN4CCol6CmpNumEld @344
    _ZN4CCol6CmpStrElPc @345
    _ZN4CCol6GetNumElPb @346
    _ZN4CCol6GetPtrEl @347
    _ZN4CCol6GetStrElPb @348
    _ZN4CCol6IsNullEl @349
    _ZN4CCol6SetNumEld @350
    _ZN4CCol6SetPtrElPv @351
    _ZN4CCol6SetStrElPc @352
    _ZN4CCol7CmpDateElP5CTime @353
    _ZN4CCol7FindNumEdll @354
    _ZN4CCol7FindStrEPcll @355
    _ZN4CCol7GetDateElPb @356
    _ZN4CCol7SetDateElP5CTime @357
    _ZN4CCol7SetNullEl @358
    _ZN4CCol8FindDateEP5CTimell @359
    _ZN4CCol8IsNumColEv @360
    _ZN4CCol8IsStrColEv @361
    _ZN4CCol9AttachTblEP4CTbl @362
    _ZN4CCol9IsDateColEv @363
    _ZN4CColC1Ev @364
    _ZN4CColC2Ev @365
    _ZN4CColD0Ev @366
    _ZN4CColD1Ev @367
    _ZN4CColD2Ev @368
    _ZN4CObj10GetSourcesER4CStrS1_ @369
    _ZN4CObj11ChangeStyleElb @370
    _ZN4CObj11GetFullNameEv @371
    _ZN4CObj11GetTypeNameEv @372
    _ZN4CObj12GetShortNameEv @373
    _ZN4CObj12GetTextColorEv @374
    _ZN4CObj14SetLockOptionsElib @375
    _ZN4CObj3CmpEPS_ @376
    _ZN4CObj4CopyEPS_ @377
    _ZN4CObj4LockEv @378
    _ZN4CObj6IsLockEv @379
    _ZN4CObj6UnlockEv @380
    _ZN4CObj7GetFontEv @381
    _ZN4CObjC1ElPcllllml @382
    _ZN4CObjC1Ev @383
    _ZN4CObjC2ElPcllllml @384
    _ZN4CObjC2Ev @385
    _ZN4CObjD0Ev @386
    _ZN4CObjD1Ev @387
    _ZN4CObjD2Ev @388
    _ZN4CStr10ConcatCopyEiPKc @389
    _ZN4CStr10ReplaceStrEPcS0_S0_bb @390
    _ZN4CStr11AllocBufferEi @391
    _ZN4CStr11ReverseFindEPc @392
    _ZN4CStr12FillByFormatEPKcz @393
    _ZN4CStr13ReplaceAllStrEPcS0_b @394
    _ZN4CStr3MidEii @395
    _ZN4CStr4FindEPci @396
    _ZN4CStr4InitEPKci @397
    _ZN4CStr4InitEPci @398
    _ZN4CStr4LeftEi @399
    _ZN4CStr5EmptyEv @400
    _ZN4CStr5RightEi @401
    _ZN4CStr6DeleteEii @402
    _ZN4CStr6InsertEiPc @403
    _ZN4CStr6RemoveEc @404
    _ZN4CStr7CompareEPKcb @405
    _ZN4CStr7ReplaceEcc @406
    _ZN4CStr8MakeCaseEs @407
    _ZN4CStr8TrimLeftEv @408
    _ZN4CStr9FindOneOfEPci @409
    _ZN4CStr9GetLengthEv @410
    _ZN4CStr9TrimRightEv @411
    _ZN4CStrC1EPKc @412
    _ZN4CStrC1EPKci @413
    _ZN4CStrC1EPc @414
    _ZN4CStrC1EPci @415
    _ZN4CStrC1ERS_ @416
    _ZN4CStrC1Eci @417
    _ZN4CStrC1Ev @418
    _ZN4CStrC2EPKc @419
    _ZN4CStrC2EPKci @420
    _ZN4CStrC2EPc @421
    _ZN4CStrC2EPci @422
    _ZN4CStrC2ERS_ @423
    _ZN4CStrC2Eci @424
    _ZN4CStrC2Ev @425
    _ZN4CStrD1Ev @426
    _ZN4CStrD2Ev @427
    _ZN4CStraSEPKc @428
    _ZN4CStraSERS_ @429
    _ZN4CStrcvPcEv @430
    _ZN4CStrixEi @431
    _ZN4CStrpLEPKc @432
    _ZN4CStrpLEPc @433
    _ZN4CStrpLEc @434
    _ZN4CStrpLEi @435
    _ZN4CStrpLEl @436
    _ZN4CStrplEPKc @437
    _ZN4CStrplEPc @438
    _ZN4CStrplEi @439
    _ZN4CStrplEl @440
    _ZN4CTbl10AppendSizeEl @441
    _ZN4CTbl10SetNullRowEl @442
    _ZN4CTbl11GetColByPosEl @443
    _ZN4CTbl11GetFullNameEv @444
    _ZN4CTbl11GetTypeNameEv @445
    _ZN4CTbl11InitColumnsEv @446
    _ZN4CTbl11IsSelectColEll @447
    _ZN4CTbl11IsSelectRowEl @448
    _ZN4CTbl11MakeColumnsEP3LST @449
    _ZN4CTbl12GetColByNameEPKcPc @450
    _ZN4CTbl12GetTextColorEv @451
    _ZN4CTbl12TestRowStyleEll @452
    _ZN4CTbl12TestTblStyleEl @453
    _ZN4CTbl12UpdateColPosEv @454
    _ZN4CTbl13MakeExportRowER4CStriR8LONG_LST @455
    _ZN4CTbl14ChangeRowStyleEllb @456
    _ZN4CTbl14CmpExternalRowElPS_l @457
    _ZN4CTbl15CopyExternalRowElPS_l @458
    _ZN4CTbl15GetColShowValueEP4CColl @459
    _ZN4CTbl15GetSelectedColsER7OBJ_LSTb @460
    _ZN4CTbl15GetSelectedRowsER8LONG_LSTb @461
    _ZN4CTbl16WriteExportValueEiPcR4CStriS2_ @462
    _ZN4CTbl17GetColExportValueEP4CColl @463
    _ZN4CTbl19MakeExportDocHeaderER4CStr @464
    _ZN4CTbl19MakeExportTblHeaderER4CStrR8LONG_LST @465
    _ZN4CTbl3CmpEP4CObj @466
    _ZN4CTbl3CmpEPcll @467
    _ZN4CTbl3GetEPcl @468
    _ZN4CTbl3SetEPcll @469
    _ZN4CTbl4CopyEP4CObj @470
    _ZN4CTbl4FindEPclll @471
    _ZN4CTbl5Go_toEllPlS0_ @472
    _ZN4CTbl6AddColEPcS0_iiiiiii @473
    _ZN4CTbl6AddRowEb @474
    _ZN4CTbl6CmpNumEPcld @475
    _ZN4CTbl6CmpRowEll @476
    _ZN4CTbl6CmpStrEPclS0_ @477
    _ZN4CTbl6DelColEll @478
    _ZN4CTbl6DelRowElb @479
    _ZN4CTbl6GetColEllPc @480
    _ZN4CTbl6GetNumEPcl @481
    _ZN4CTbl6GetPtrEPcl @482
    _ZN4CTbl6GetStrEPcl @483
    _ZN4CTbl6InsRowElb @484
    _ZN4CTbl6Is0RowEl @485
    _ZN4CTbl6IsNullEPcl @486
    _ZN4CTbl6SetNumEPcld @487
    _ZN4CTbl6SetPtrEPclPv @488
    _ZN4CTbl6SetStrEPclS0_ @489
    _ZN4CTbl7AddCColEP4CColl @490
    _ZN4CTbl7CmpDateEPclP5CTime @491
    _ZN4CTbl7CopyRowEll @492
    _ZN4CTbl7FindNumEPcdll @493
    _ZN4CTbl7FindStrEPcS0_ll @494
    _ZN4CTbl7GetDateEPcl @495
    _ZN4CTbl7MoveColEll @496
    _ZN4CTbl7MoveRowElll @497
    _ZN4CTbl7Set0RowEl @498
    _ZN4CTbl7SetDateEPclP5CTime @499
    _ZN4CTbl7SetNullEPcl @500
    _ZN4CTbl7SetSizeEll @501
    _ZN4CTbl8AddColAsEP4CCol @502
    _ZN4CTbl8FindDateEPcP5CTimell @503
    _ZN4CTbl8IsSelectEv @504
    _ZN4CTbl9CmpValuesEP4CColP8LONG_LST @505
    _ZN4CTbl9GetColCntEv @506
    _ZN4CTbl9GetCurColEv @507
    _ZN4CTbl9GetRowCntEv @508
    _ZN4CTbl9IsNullRowEl @509
    _ZN4CTbl9SelectAllEb @510
    _ZN4CTbl9SelectColEllb @511
    _ZN4CTbl9SelectRowElb @512
    _ZN4CTbl9SetRowCntEl @513
    _ZN4CTblC1Ev @514
    _ZN4CTblC2Ev @515
    _ZN4CTblD0Ev @516
    _ZN4CTblD1Ev @517
    _ZN4CTblD2Ev @518
    _ZN5CTime14SetCurrentTimeEv @519
    _ZN5CTime15ConvertToDoubleEv @520
    _ZN5CTime17ConvertFromDoubleEd @521
    _ZN5CTime3CmpEPS_ @522
    _ZN5CTime3GetEP2tmb @523
    _ZN5CTime3SetEP2tmtb @524
    _ZN5CTime3SetEsccccctb @525
    _ZN5CTime6IsNullEv @526
    _ZN5CTime7AddMSecEd @527
    _ZN5CTime7SubMSecEd @528
    _ZN5CTimeC1Ev @529
    _ZN5CTimeC2Ev @530
    _ZN5CTimecvdEv @531
    _ZN7INT_LST3CmpEll @532
    _ZN7INT_LST3DelEl @533
    _ZN7INT_LST3GetEl @534
    _ZN7INT_LST3SetEll @535
    _ZN7INT_LST4CopyEll @536
    _ZN7INT_LST4FindElll @537
    _ZN7INT_LST6AddPtrEPv @538
    _ZN7INT_LST6IsNullEl @539
    _ZN7INT_LST6SetPtrElPv @540
    _ZN7INT_LST7SetNullEl @541
    _ZN7INT_LSTC1EllPc @542
    _ZN7INT_LSTC1Ev @543
    _ZN7INT_LSTC2EllPc @544
    _ZN7INT_LSTC2Ev @545
    _ZN7INT_LSTD0Ev @546
    _ZN7INT_LSTD1Ev @547
    _ZN7INT_LSTD2Ev @548
    _ZN7OBJ_LST3CmpEll @549
    _ZN7OBJ_LST3InsEll @550
    _ZN7OBJ_LST3SetEll @551
    _ZN7OBJ_LST4CopyEll @552
    _ZN7OBJ_LST4FindElll @553
    _ZN7OBJ_LST6AddObjEP4CObjb @554
    _ZN7OBJ_LST6DelObjElb @555
    _ZN7OBJ_LST6GetObjElb @556
    _ZN7OBJ_LST6InsObjElP4CObjb @557
    _ZN7OBJ_LST6IsNullEl @558
    _ZN7OBJ_LST6SetObjElP4CObjb @559
    _ZN7OBJ_LST7SetNullEl @560
    _ZN7OBJ_LST9AppendLstERS_b @561
    _ZN7OBJ_LST9FreeItemsEll @562
    _ZN7OBJ_LSTC1Elb @563
    _ZN7OBJ_LSTC2Elb @564
    _ZN7OBJ_LSTD0Ev @565
    _ZN7OBJ_LSTD1Ev @566
    _ZN7OBJ_LSTD2Ev @567
    _ZN8BYTE_LST3CmpEll @568
    _ZN8BYTE_LST3GetEl @569
    _ZN8BYTE_LST3SetEll @570
    _ZN8BYTE_LST4CopyEll @571
    _ZN8BYTE_LST4FindElll @572
    _ZN8BYTE_LST6AddPtrEPv @573
    _ZN8BYTE_LST6IsNullEl @574
    _ZN8BYTE_LST6SetPtrElPv @575
    _ZN8BYTE_LST7SetNullEl @576
    _ZN8BYTE_LSTC1EllPc @577
    _ZN8BYTE_LSTC1Ev @578
    _ZN8BYTE_LSTC2EllPc @579
    _ZN8BYTE_LSTC2Ev @580
    _ZN8BYTE_LSTD0Ev @581
    _ZN8BYTE_LSTD1Ev @582
    _ZN8BYTE_LSTD2Ev @583
    _ZN8CHAR_LST3CmpEll @584
    _ZN8CHAR_LST3SetEll @585
    _ZN8CHAR_LST4FindElll @586
    _ZN8CHAR_LST6IsNullEl @587
    _ZN8CHAR_LSTC1ElllPc @588
    _ZN8CHAR_LSTC1Ev @589
    _ZN8CHAR_LSTC2ElllPc @590
    _ZN8CHAR_LSTC2Ev @591
    _ZN8CHAR_LSTD0Ev @592
    _ZN8CHAR_LSTD1Ev @593
    _ZN8CHAR_LSTD2Ev @594
    _ZN8DATE_LST3CmpEll @595
    _ZN8DATE_LST6IsNullEl @596
    _ZN8DATE_LSTC1ElllPc @597
    _ZN8DATE_LSTC1Ev @598
    _ZN8DATE_LSTC2ElllPc @599
    _ZN8DATE_LSTC2Ev @600
    _ZN8DATE_LSTD0Ev @601
    _ZN8DATE_LSTD1Ev @602
    _ZN8DATE_LSTD2Ev @603
    _ZN8LONG_LST3CmpEll @604
    _ZN8LONG_LST3DelEl @605
    _ZN8LONG_LST3GetEl @606
    _ZN8LONG_LST3SetEll @607
    _ZN8LONG_LST4CopyEll @608
    _ZN8LONG_LST4FindElll @609
    _ZN8LONG_LST6AddPtrEPv @610
    _ZN8LONG_LST6IsNullEl @611
    _ZN8LONG_LST6SetPtrElPv @612
    _ZN8LONG_LST7SetNullEl @613
    _ZN8LONG_LSTC1EllPc @614
    _ZN8LONG_LSTC1Ev @615
    _ZN8LONG_LSTC2EllPc @616
    _ZN8LONG_LSTC2Ev @617
    _ZN8LONG_LSTD0Ev @618
    _ZN8LONG_LSTD1Ev @619
    _ZN8LONG_LSTD2Ev @620
    _ZN9FLOAT_LST3CmpEll @621
    _ZN9FLOAT_LST6AddPtrEPv @622
    _ZN9FLOAT_LST6IsNullEl @623
    _ZN9FLOAT_LST6SetPtrElPv @624
    _ZN9FLOAT_LST7SetNullEl @625
    _ZN9FLOAT_LSTC1EllPc @626
    _ZN9FLOAT_LSTC1Ev @627
    _ZN9FLOAT_LSTC2EllPc @628
    _ZN9FLOAT_LSTC2Ev @629
    _ZN9FLOAT_LSTD0Ev @630
    _ZN9FLOAT_LSTD1Ev @631
    _ZN9FLOAT_LSTD2Ev @632
    _ZN9SHORT_LST3CmpEll @633
    _ZN9SHORT_LST3GetEl @634
    _ZN9SHORT_LST3SetEll @635
    _ZN9SHORT_LST4CopyEll @636
    _ZN9SHORT_LST4FindElll @637
    _ZN9SHORT_LST6AddPtrEPv @638
    _ZN9SHORT_LST6IsNullEl @639
    _ZN9SHORT_LST6SetPtrElPv @640
    _ZN9SHORT_LST7SetNullEl @641
    _ZN9SHORT_LSTC1EllPc @642
    _ZN9SHORT_LSTC1Ev @643
    _ZN9SHORT_LSTC2EllPc @644
    _ZN9SHORT_LSTC2Ev @645
    _ZN9SHORT_LSTD0Ev @646
    _ZN9SHORT_LSTD1Ev @647
    _ZN9SHORT_LSTD2Ev @648
    _ZTI10DOUBLE_LST @649 DATA
    _ZTI11CCalcClient @650 DATA
    _ZTI11VARCHAR_LST @651 DATA
    _ZTI12CCalcRequest @652 DATA
    _ZTI24CGetClientSubscribedData @653 DATA
    _ZTI24CPutClientSubscribedData @654 DATA
    _ZTI3LST @655 DATA
    _ZTI4CCol @656 DATA
    _ZTI4CObj @657 DATA
    _ZTI4CTbl @658 DATA
    _ZTI7INT_LST @659 DATA
    _ZTI7OBJ_LST @660 DATA
    _ZTI8BYTE_LST @661 DATA
    _ZTI8CHAR_LST @662 DATA
    _ZTI8DATE_LST @663 DATA
    _ZTI8LONG_LST @664 DATA
    _ZTI9FLOAT_LST @665 DATA
    _ZTI9SHORT_LST @666 DATA
    _ZTS10DOUBLE_LST @667 DATA
    _ZTS11CCalcClient @668 DATA
    _ZTS11VARCHAR_LST @669 DATA
    _ZTS12CCalcRequest @670 DATA
    _ZTS24CGetClientSubscribedData @671 DATA
    _ZTS24CPutClientSubscribedData @672 DATA
    _ZTS3LST @673 DATA
    _ZTS4CCol @674 DATA
    _ZTS4CObj @675 DATA
    _ZTS4CTbl @676 DATA
    _ZTS7INT_LST @677 DATA
    _ZTS7OBJ_LST @678 DATA
    _ZTS8BYTE_LST @679 DATA
    _ZTS8CHAR_LST @680 DATA
    _ZTS8DATE_LST @681 DATA
    _ZTS8LONG_LST @682 DATA
    _ZTS9FLOAT_LST @683 DATA
    _ZTS9SHORT_LST @684 DATA
    _ZTV10DOUBLE_LST @685 DATA
    _ZTV11CCalcClient @686 DATA
    _ZTV11VARCHAR_LST @687 DATA
    _ZTV12CCalcRequest @688 DATA
    _ZTV24CGetClientSubscribedData @689 DATA
    _ZTV24CPutClientSubscribedData @690 DATA
    _ZTV3LST @691 DATA
    _ZTV4CCol @692 DATA
    _ZTV4CObj @693 DATA
    _ZTV4CTbl @694 DATA
    _ZTV7INT_LST @695 DATA
    _ZTV7OBJ_LST @696 DATA
    _ZTV8BYTE_LST @697 DATA
    _ZTV8CHAR_LST @698 DATA
    _ZTV8DATE_LST @699 DATA
    _ZTV8LONG_LST @700 DATA
    _ZTV9FLOAT_LST @701 DATA
    _ZTV9SHORT_LST @702 DATA
    _ZeqR4CStrS0_ @703
    _get_output_format @704
    cEmpty @705 DATA
    checkparams_ @706
    clearlist_ @707
    connect_ @708
    copylayer_ @709
    createchannel_ @710
    dPrevCurrentTime @711 DATA
    dReversTime @712 DATA
    disconnect_ @713
    getchannelflags_ @714
    getchannelstatus_ @715
    getfloat_ @716
    getint_ @717
    getlayertime_ @718
    getlayertimems_ @719
    getparamname_ @720
    getqueuedepth_ @721
    getqueuefree_ @722
    getqueuelength_ @723
    getstatus_ @724
    initmodlib_ @725
    insert_ @726
    pSuperMutex @727 DATA
    putfloat_ @728
    putint_ @729
    putlayertime_ @730
    putlayertimems_ @731
    putstatus_ @732
    setcopylayertimeout_ @733
    setqueuedepth_ @734
    setrxtimeout_ @735
    shutdownmodlib_ @736
    strcasecmp @737
    strncasecmp @738
    subscribe_ @739
    unsubscribe_ @740
